; Function Attrs: mustprogress uwtable
define void @_ZNK10open_spiel11tic_tac_toe14TicTacToeState8ToStringB5cxx11Ev(ptr dead_on_unwind noalias nonnull writable sret(%"class.std::__cxx11::basic_string") align 8 %0, ptr nocapture noundef nonnull readonly align 8 dereferenceable(108) %1) unnamed_addr #3 align 2 personality ptr @__gxx_personality_v0 {
  %3 = alloca %"class.absl::debian2::AlphaNum", align 8
  %4 = alloca %"class.std::__cxx11::basic_string", align 8
  %5 = alloca %"class.absl::debian2::AlphaNum", align 8
  tail call void @_ZNSt7__cxx1112basic_stringIcSt11char_traitsIcESaIcEEC1Ev(ptr noundef nonnull align 8 dereferenceable(32) %0) #24
  %6 = getelementptr inbounds nuw i8, ptr %1, i64 60
  %7 = getelementptr inbounds nuw i8, ptr %3, i64 8
  %8 = getelementptr inbounds nuw i8, ptr %5, i64 8
  br label %.preheader

.preheader:                                       ; preds = %24, %2
  %indvars.iv17 = phi i64 [ 0, %2 ], [ %indvars.iv.next18, %24 ]
  %9 = mul nuw nsw i64 %indvars.iv17, 3
  br label %10

10:                                               ; preds = %.preheader, %19
  %indvars.iv = phi i64 [ 0, %.preheader ], [ %indvars.iv.next, %19 ]
  %11 = add nuw nsw i64 %indvars.iv, %9
  %12 = getelementptr inbounds [9 x i32], ptr %6, i64 0, i64 %11
  %13 = load i32, ptr %12, align 4
  invoke void @_ZN10open_spiel11tic_tac_toe13StateToStringB5cxx11ENS0_9CellStateE(ptr dead_on_unwind nonnull writable sret(%"class.std::__cxx11::basic_string") align 8 %4, i32 noundef %13)
          to label %14 unwind label %.loopexit

14:                                               ; preds = %10
  %15 = call noundef ptr @_ZNKSt7__cxx1112basic_stringIcSt11char_traitsIcESaIcEE4dataEv(ptr noundef nonnull align 8 dereferenceable(32) %4) #24
  %16 = call noundef i64 @_ZNKSt7__cxx1112basic_stringIcSt11char_traitsIcESaIcEE4sizeEv(ptr noundef nonnull align 8 dereferenceable(32) %4) #24
  store ptr %15, ptr %3, align 8
  %17 = icmp sgt i64 %16, -1
  br i1 %17, label %_ZN4absl7debian28AlphaNumC2ISaIcEEERKNSt7__cxx1112basic_stringIcSt11char_traitsIcET_EE.exit, label %18

18:                                               ; preds = %14
  call void @llvm.trap()
  unreachable

_ZN4absl7debian28AlphaNumC2ISaIcEEERKNSt7__cxx1112basic_stringIcSt11char_traitsIcET_EE.exit: ; preds = %14
  store i64 %16, ptr %7, align 8
  invoke void @_ZN4absl7debian29StrAppendEPNSt7__cxx1112basic_stringIcSt11char_traitsIcESaIcEEERKNS0_8AlphaNumE(ptr noundef nonnull %0, ptr noundef nonnull align 8 dereferenceable(48) %3)
          to label %19 unwind label %20

19:                                               ; preds = %_ZN4absl7debian28AlphaNumC2ISaIcEEERKNSt7__cxx1112basic_stringIcSt11char_traitsIcET_EE.exit
  call void @_ZNSt7__cxx1112basic_stringIcSt11char_traitsIcESaIcEED1Ev(ptr noundef nonnull align 8 dereferenceable(32) %4) #24
  %indvars.iv.next = add nuw nsw i64 %indvars.iv, 1
  %exitcond.not = icmp eq i64 %indvars.iv.next, 3
  br i1 %exitcond.not, label %22, label %10, !llvm.loop !6

.loopexit:                                        ; preds = %10
  %lpad.loopexit = landingpad { ptr, i32 }
          cleanup
  br label %26

.loopexit.split-lp:                               ; preds = %23
  %lpad.loopexit.split-lp = landingpad { ptr, i32 }
          cleanup
  br label %26

20:                                               ; preds = %_ZN4absl7debian28AlphaNumC2ISaIcEEERKNSt7__cxx1112basic_stringIcSt11char_traitsIcET_EE.exit
  %21 = landingpad { ptr, i32 }
          cleanup
  call void @_ZNSt7__cxx1112basic_stringIcSt11char_traitsIcESaIcEED1Ev(ptr noundef nonnull align 8 dereferenceable(32) %4) #24
  br label %26

22:                                               ; preds = %19
  %.not = icmp eq i64 %indvars.iv17, 2
  br i1 %.not, label %25, label %23

23:                                               ; preds = %22
  store ptr @.str.17, ptr %5, align 8
  store i64 1, ptr %8, align 8
  invoke void @_ZN4absl7debian29StrAppendEPNSt7__cxx1112basic_stringIcSt11char_traitsIcESaIcEEERKNS0_8AlphaNumE(ptr noundef nonnull %0, ptr noundef nonnull align 8 dereferenceable(48) %5)
          to label %24 unwind label %.loopexit.split-lp

24:                                               ; preds = %23
  %indvars.iv.next18 = add nuw nsw i64 %indvars.iv17, 1
  br label %.preheader

25:                                               ; preds = %22
  ret void

26:                                               ; preds = %.loopexit, %.loopexit.split-lp, %20
  %.pn = phi { ptr, i32 } [ %21, %20 ], [ %lpad.loopexit, %.loopexit ], [ %lpad.loopexit.split-lp, %.loopexit.split-lp ]
  call void @_ZNSt7__cxx1112basic_stringIcSt11char_traitsIcESaIcEED1Ev(ptr noundef nonnull align 8 dereferenceable(32) %0) #24
  resume { ptr, i32 } %.pn
}